target datalayout = "e-m:e-p270:32:32-p271:32:32-p272:64:64-i64:64-i128:128-f80:128-n8:16:32:64-S128"
target triple = "x86_64-pc-linux-gnu"

%struct.object_id = type { [32 x i8], i32 }
%struct.commit = type { %struct.object, i64, ptr, ptr, i32 }
%struct.object = type { i32, %struct.object_id }

@the_repository = external global ptr, align 8
@complete = internal global ptr null, align 8

; Function Attrs: nounwind uwtable
define internal i32 @mark_complete(ptr noundef %0, ptr noundef %1, ptr noundef %2, i32 noundef %3, ptr noundef %4) #0 {
  %6 = alloca ptr, align 8
  %7 = alloca ptr, align 8
  %8 = alloca ptr, align 8
  %9 = alloca i32, align 4
  %10 = alloca ptr, align 8
  %11 = alloca ptr, align 8
  store ptr %0, ptr %6, align 8, !tbaa !9
  store ptr %1, ptr %7, align 8, !tbaa !9
  store ptr %2, ptr %8, align 8, !tbaa !30
  store i32 %3, ptr %9, align 4, !tbaa !18
  store ptr %4, ptr %10, align 8, !tbaa !37
  call void @llvm.lifetime.start.p0(i64 8, ptr %11) #9
  %12 = load ptr, ptr @the_repository, align 8, !tbaa !32
  %13 = load ptr, ptr %8, align 8, !tbaa !30
  %14 = call ptr @lookup_commit_reference_gently(ptr noundef %12, ptr noundef %13, i32 noundef 1)
  store ptr %14, ptr %11, align 8, !tbaa !38
  %15 = load ptr, ptr %11, align 8, !tbaa !38
  %16 = icmp ne ptr %15, null
  br i1 %16, label %17, label %30

17:                                               ; preds = %5
  %18 = load ptr, ptr %11, align 8, !tbaa !38
  %19 = getelementptr inbounds nuw %struct.commit, ptr %18, i32 0, i32 0
  %20 = load i32, ptr %19, align 8
  %21 = lshr i32 %20, 4
  %22 = or i32 %21, 1
  %23 = load i32, ptr %19, align 8
  %24 = and i32 %22, 268435455
  %25 = shl i32 %24, 4
  %26 = and i32 %23, 15
  %27 = or i32 %26, %25
  store i32 %27, ptr %19, align 8
  %28 = load ptr, ptr %11, align 8, !tbaa !38
  %29 = call ptr @commit_list_insert(ptr noundef %28, ptr noundef @complete)
  br label %30

30:                                               ; preds = %17, %5
  call void @llvm.lifetime.end.p0(i64 8, ptr %11) #9
  ret i32 0
}