; Function Attrs: nounwind uwtable
define internal noundef i32 @mark_complete(ptr readnone captures(none) %0, ptr readnone captures(none) %1, ptr noundef %2, i32 %3, ptr readnone captures(none) %4) #4 {
  %6 = load ptr, ptr @the_repository, align 8, !tbaa !23
  %7 = tail call ptr @lookup_commit_reference_gently(ptr noundef %6, ptr noundef %2, i32 noundef 1) #13
  %.not = icmp eq ptr %7, null
  br i1 %.not, label %12, label %8

8:                                                ; preds = %5
  %9 = load i32, ptr %7, align 8
  %10 = or i32 %9, 16
  store i32 %10, ptr %7, align 8
  %11 = tail call ptr @commit_list_insert(ptr noundef nonnull %7, ptr noundef nonnull @complete) #13
  br label %12

12:                                               ; preds = %8, %5
  ret i32 0
}